target datalayout = "e-m:e-p270:32:32-p271:32:32-p272:64:64-i64:64-i128:128-f80:128-n8:16:32:64-S128"
target triple = "x86_64-pc-linux-gnu"

%struct.VLC = type { i32, ptr, i32, i32 }

@dc_vlc = internal global %struct.VLC zeroinitializer, align 8
@tscc2_dc_vlc_lens = internal constant [47 x i8] c"\03\03\06\09\0A\0A\09\0A\0A\08\08\06\07\09\0A\0A\09\0A\0A\05\07\08\08\09\0A\0A\09\09\07\05\05\07\08\0A\0A\09\06\06\08\0A\0A\09\08\0A\0A\09\01", align 16
@nc_vlc = internal global [13 x %struct.VLC] zeroinitializer, align 16
@ac_vlc = internal global [13 x %struct.VLC] zeroinitializer, align 16
@tscc2_ac_vlc_sizes = internal constant [13 x i32] [i32 172, i32 169, i32 165, i32 162, i32 131, i32 132, i32 130, i32 125, i32 121, i32 114, i32 110, i32 101, i32 96], align 16

; Function Attrs: cold nounwind optsize uwtable
define internal void @tscc2_init_vlcs() #0 {
  %1 = alloca ptr, align 8
  %2 = alloca ptr, align 8
  %3 = alloca i32, align 4
  %4 = alloca i32, align 4
  call void @llvm.lifetime.start.p0(i64 8, ptr %1) #9
  store ptr @tscc2_ac_vlc_syms, ptr %1, align 8, !tbaa !59
  call void @llvm.lifetime.start.p0(i64 8, ptr %2) #9
  store ptr @tscc2_ac_vlc_lens, ptr %2, align 8, !tbaa !48
  call void @llvm.lifetime.start.p0(i64 4, ptr %3) #9
  call void @llvm.lifetime.start.p0(i64 4, ptr %4) #9
  store i32 0, ptr %4, align 4, !tbaa !50
  call void @tscc2_init_vlc(ptr noundef @dc_vlc, ptr noundef %4, i32 noundef 47, ptr noundef @tscc2_dc_vlc_lens, ptr noundef @tscc2_dc_vlc_syms, i32 noundef 2) #10
  store i32 0, ptr %3, align 4, !tbaa !50
  br label %5

5:                                                ; preds = %43, %0
  %6 = load i32, ptr %3, align 4, !tbaa !50
  %7 = icmp slt i32 %6, 13
  br i1 %7, label %8, label %46

8:                                                ; preds = %5
  %9 = load i32, ptr %3, align 4, !tbaa !50
  %10 = sext i32 %9 to i64
  %11 = getelementptr inbounds [13 x %struct.VLC], ptr @nc_vlc, i64 0, i64 %10
  %12 = load i32, ptr %3, align 4, !tbaa !50
  %13 = sext i32 %12 to i64
  %14 = getelementptr inbounds [13 x [16 x i8]], ptr @tscc2_nc_vlc_lens, i64 0, i64 %13
  %15 = getelementptr inbounds [16 x i8], ptr %14, i64 0, i64 0
  %16 = load i32, ptr %3, align 4, !tbaa !50
  %17 = sext i32 %16 to i64
  %18 = getelementptr inbounds [13 x [16 x i8]], ptr @tscc2_nc_vlc_syms, i64 0, i64 %17
  %19 = getelementptr inbounds [16 x i8], ptr %18, i64 0, i64 0
  call void @tscc2_init_vlc(ptr noundef %11, ptr noundef %4, i32 noundef 16, ptr noundef %15, ptr noundef %19, i32 noundef 1) #10
  %20 = load i32, ptr %3, align 4, !tbaa !50
  %21 = sext i32 %20 to i64
  %22 = getelementptr inbounds [13 x %struct.VLC], ptr @ac_vlc, i64 0, i64 %21
  %23 = load i32, ptr %3, align 4, !tbaa !50
  %24 = sext i32 %23 to i64
  %25 = getelementptr inbounds [13 x i32], ptr @tscc2_ac_vlc_sizes, i64 0, i64 %24
  %26 = load i32, ptr %25, align 4, !tbaa !50
  %27 = load ptr, ptr %2, align 8, !tbaa !48
  %28 = load ptr, ptr %1, align 8, !tbaa !59
  call void @tscc2_init_vlc(ptr noundef %22, ptr noundef %4, i32 noundef %26, ptr noundef %27, ptr noundef %28, i32 noundef 2) #10
  %29 = load i32, ptr %3, align 4, !tbaa !50
  %30 = sext i32 %29 to i64
  %31 = getelementptr inbounds [13 x i32], ptr @tscc2_ac_vlc_sizes, i64 0, i64 %30
  %32 = load i32, ptr %31, align 4, !tbaa !50
  %33 = load ptr, ptr %2, align 8, !tbaa !48
  %34 = sext i32 %32 to i64
  %35 = getelementptr inbounds i8, ptr %33, i64 %34
  store ptr %35, ptr %2, align 8, !tbaa !48
  %36 = load i32, ptr %3, align 4, !tbaa !50
  %37 = sext i32 %36 to i64
  %38 = getelementptr inbounds [13 x i32], ptr @tscc2_ac_vlc_sizes, i64 0, i64 %37
  %39 = load i32, ptr %38, align 4, !tbaa !50
  %40 = load ptr, ptr %1, align 8, !tbaa !59
  %41 = sext i32 %39 to i64
  %42 = getelementptr inbounds i16, ptr %40, i64 %41
  store ptr %42, ptr %1, align 8, !tbaa !59
  br label %43

43:                                               ; preds = %8
  %44 = load i32, ptr %3, align 4, !tbaa !50
  %45 = add nsw i32 %44, 1
  store i32 %45, ptr %3, align 4, !tbaa !50
  br label %5, !llvm.loop !60

46:                                               ; preds = %5
  call void @llvm.lifetime.end.p0(i64 4, ptr %4) #9
  call void @llvm.lifetime.end.p0(i64 4, ptr %3) #9
  call void @llvm.lifetime.end.p0(i64 8, ptr %2) #9
  call void @llvm.lifetime.end.p0(i64 8, ptr %1) #9
  ret void
}