; Function Attrs: cold nounwind optsize uwtable
define internal void @tscc2_init_vlcs() #0 {
  %1 = alloca i32, align 4
  call void @llvm.lifetime.start.p0(i64 4, ptr nonnull %1) #7
  store i32 0, ptr %1, align 4, !tbaa !43
  call fastcc void @tscc2_init_vlc(ptr noundef nonnull @dc_vlc, ptr noundef %1, i32 noundef 47, ptr noundef nonnull @tscc2_dc_vlc_lens, ptr noundef nonnull @tscc2_dc_vlc_syms, i32 noundef 2) #9
  br label %2

2:                                                ; preds = %0, %2
  %indvars.iv = phi i64 [ 0, %0 ], [ %indvars.iv.next, %2 ]
  %.01215 = phi ptr [ @tscc2_ac_vlc_lens, %0 ], [ %10, %2 ]
  %.01314 = phi ptr [ @tscc2_ac_vlc_syms, %0 ], [ %11, %2 ]
  %3 = getelementptr inbounds nuw [13 x %struct.VLC], ptr @nc_vlc, i64 0, i64 %indvars.iv
  %4 = getelementptr inbounds nuw [13 x [16 x i8]], ptr @tscc2_nc_vlc_lens, i64 0, i64 %indvars.iv
  %5 = getelementptr inbounds nuw [13 x [16 x i8]], ptr @tscc2_nc_vlc_syms, i64 0, i64 %indvars.iv
  call fastcc void @tscc2_init_vlc(ptr noundef nonnull %3, ptr noundef %1, i32 noundef 16, ptr noundef nonnull %4, ptr noundef nonnull %5, i32 noundef 1) #9
  %6 = getelementptr inbounds nuw [13 x %struct.VLC], ptr @ac_vlc, i64 0, i64 %indvars.iv
  %7 = getelementptr inbounds nuw [13 x i32], ptr @tscc2_ac_vlc_sizes, i64 0, i64 %indvars.iv
  %8 = load i32, ptr %7, align 4, !tbaa !43
  call fastcc void @tscc2_init_vlc(ptr noundef nonnull %6, ptr noundef %1, i32 noundef %8, ptr noundef %.01215, ptr noundef %.01314, i32 noundef 2) #9
  %9 = sext i32 %8 to i64
  %10 = getelementptr inbounds i8, ptr %.01215, i64 %9
  %11 = getelementptr inbounds i16, ptr %.01314, i64 %9
  %indvars.iv.next = add nuw nsw i64 %indvars.iv, 1
  %exitcond.not = icmp eq i64 %indvars.iv.next, 13
  br i1 %exitcond.not, label %12, label %2, !llvm.loop !70

12:                                               ; preds = %2
  call void @llvm.lifetime.end.p0(i64 4, ptr nonnull %1) #7
  ret void
}